; Function Attrs: nofree nounwind uwtable
define noalias noundef ptr @Lms_GiaCountTruths(ptr noundef readonly captures(none) %0) local_unnamed_addr #9 {
  %2 = getelementptr inbounds nuw i8, ptr %0, i64 32
  %3 = load ptr, ptr %2, align 8
  %4 = getelementptr i8, ptr %3, i64 4
  %.val11 = load i32, ptr %4, align 4
  %5 = tail call noalias dereferenceable_or_null(16) ptr @malloc(i64 noundef 16) #23
  %6 = add i32 %.val11, -1
  %or.cond.i.i = icmp ult i32 %6, 15
  %spec.store.select.i.i = select i1 %or.cond.i.i, i32 16, i32 %.val11
  %7 = getelementptr inbounds nuw i8, ptr %5, i64 4
  store i32 %spec.store.select.i.i, ptr %5, align 8
  %.not.i.i = icmp eq i32 %spec.store.select.i.i, 0
  br i1 %.not.i.i, label %Vec_IntAlloc.exit.thread.i, label %Vec_IntAlloc.exit.i

Vec_IntAlloc.exit.thread.i:                       ; preds = %1
  %8 = getelementptr inbounds nuw i8, ptr %5, i64 8
  store ptr null, ptr %8, align 8
  store i32 %.val11, ptr %7, align 4
  br label %Vec_IntStart.exit

Vec_IntAlloc.exit.i:                              ; preds = %1
  %9 = sext i32 %spec.store.select.i.i to i64
  %10 = shl nsw i64 %9, 2
  %11 = tail call noalias ptr @malloc(i64 noundef %10) #23
  %12 = getelementptr inbounds nuw i8, ptr %5, i64 8
  store ptr %11, ptr %12, align 8
  store i32 %.val11, ptr %7, align 4
  %.not.i = icmp eq ptr %11, null
  br i1 %.not.i, label %Vec_IntStart.exit, label %13

13:                                               ; preds = %Vec_IntAlloc.exit.i
  %14 = sext i32 %.val11 to i64
  %15 = shl nsw i64 %14, 2
  tail call void @llvm.memset.p0.i64(ptr nonnull align 4 %11, i8 0, i64 %15, i1 false)
  br label %Vec_IntStart.exit

Vec_IntStart.exit:                                ; preds = %Vec_IntAlloc.exit.thread.i, %Vec_IntAlloc.exit.i, %13
  %.val12 = phi ptr [ null, %Vec_IntAlloc.exit.thread.i ], [ null, %Vec_IntAlloc.exit.i ], [ %11, %13 ]
  %16 = getelementptr inbounds nuw i8, ptr %0, i64 40
  %17 = load ptr, ptr %16, align 8
  %18 = getelementptr i8, ptr %17, i64 4
  %.val13 = load i32, ptr %18, align 4
  %19 = icmp sgt i32 %.val13, 0
  br i1 %19, label %.lr.ph, label %.critedge

.lr.ph:                                           ; preds = %Vec_IntStart.exit
  %20 = getelementptr i8, ptr %17, i64 8
  br label %21

21:                                               ; preds = %.lr.ph, %30
  %.val17 = phi i32 [ %.val13, %.lr.ph ], [ %.val, %30 ]
  %indvars.iv = phi i64 [ 0, %.lr.ph ], [ %indvars.iv.next, %30 ]
  %.val10 = load ptr, ptr %20, align 8
  %22 = getelementptr inbounds nuw i32, ptr %.val10, i64 %indvars.iv
  %23 = load i32, ptr %22, align 4
  %24 = icmp sgt i32 %23, -1
  br i1 %24, label %25, label %30

25:                                               ; preds = %21
  %26 = zext nneg i32 %23 to i64
  %27 = getelementptr inbounds nuw i32, ptr %.val12, i64 %26
  %28 = load i32, ptr %27, align 4
  %29 = add nsw i32 %28, 1
  store i32 %29, ptr %27, align 4
  %.val.pre = load i32, ptr %18, align 4
  br label %30

30:                                               ; preds = %21, %25
  %.val = phi i32 [ %.val17, %21 ], [ %.val.pre, %25 ]
  %indvars.iv.next = add nuw nsw i64 %indvars.iv, 1
  %31 = sext i32 %.val to i64
  %32 = icmp slt i64 %indvars.iv.next, %31
  br i1 %32, label %21, label %.critedge, !llvm.loop !50

.critedge:                                        ; preds = %30, %Vec_IntStart.exit
  ret ptr %5
}